ARM GAS  /var/folders/ls/xtnbpyh15yxdpzgvzlqj4t780000gn/T//ccEU8zZ9.s 			page 1


   1              		.cpu cortex-m4
   2              		.arch armv7e-m
   3              		.fpu fpv4-sp-d16
   4              		.eabi_attribute 27, 1
   5              		.eabi_attribute 28, 1
   6              		.eabi_attribute 20, 1
   7              		.eabi_attribute 21, 1
   8              		.eabi_attribute 23, 3
   9              		.eabi_attribute 24, 1
  10              		.eabi_attribute 25, 1
  11              		.eabi_attribute 26, 1
  12              		.eabi_attribute 30, 1
  13              		.eabi_attribute 34, 1
  14              		.eabi_attribute 18, 4
  15              		.file	"lcd_md21605.c"
  16              		.text
  17              	.Ltext0:
  18              		.cfi_sections	.debug_frame
  19              		.file 1 "Core/Src/lcd_md21605.c"
  20              		.section	.text.send_lcd_command,"ax",%progbits
  21              		.align	1
  22              		.global	send_lcd_command
  23              		.syntax unified
  24              		.thumb
  25              		.thumb_func
  27              	send_lcd_command:
  28              	.LVL0:
  29              	.LFB138:
   1:Core/Src/lcd_md21605.c **** /**
   2:Core/Src/lcd_md21605.c ****  * @file        lcd_md21605.c
   3:Core/Src/lcd_md21605.c ****  * @brief       MIDAS with ST7032i controller
   4:Core/Src/lcd_md21605.c ****  *
   5:Core/Src/lcd_md21605.c ****  * @details
   6:Core/Src/lcd_md21605.c ****  *
   7:Core/Src/lcd_md21605.c ****  * @author      Renaud Gaglione
   8:Core/Src/lcd_md21605.c ****  * @date        13 décembre 2024
   9:Core/Src/lcd_md21605.c ****  * @version     1.0.0
  10:Core/Src/lcd_md21605.c ****  *
  11:Core/Src/lcd_md21605.c ****  * @copyright   WTF
  12:Core/Src/lcd_md21605.c ****  *
  13:Core/Src/lcd_md21605.c ****  * @note
  14:Core/Src/lcd_md21605.c ****  * @warning     Check i2c speed and pullups.
  15:Core/Src/lcd_md21605.c ****  */
  16:Core/Src/lcd_md21605.c **** #include <lcd_st7032i.h>
  17:Core/Src/lcd_md21605.c **** 
  18:Core/Src/lcd_md21605.c **** I2C_HandleTypeDef _I2cHandler ;
  19:Core/Src/lcd_md21605.c **** 
  20:Core/Src/lcd_md21605.c **** 
  21:Core/Src/lcd_md21605.c **** void lcd_init(I2C_HandleTypeDef i2cHandler)
  22:Core/Src/lcd_md21605.c **** {
  23:Core/Src/lcd_md21605.c **** 	_I2cHandler = i2cHandler ;
  24:Core/Src/lcd_md21605.c **** 	// Init sequence from manual
  25:Core/Src/lcd_md21605.c **** 	lcd_instruction(FUNC_SET|DL|N) ;
  26:Core/Src/lcd_md21605.c **** 	WAIT(1) ;
  27:Core/Src/lcd_md21605.c **** 	lcd_instruction(FUNC_SET|DL|N|IS) ;
  28:Core/Src/lcd_md21605.c **** 	WAIT(1) ;
  29:Core/Src/lcd_md21605.c **** 	lcd_instruction(SET_FREQ|0b100) ;	// 4 is ~183Hz@3V
ARM GAS  /var/folders/ls/xtnbpyh15yxdpzgvzlqj4t780000gn/T//ccEU8zZ9.s 			page 2


  30:Core/Src/lcd_md21605.c **** 	WAIT(1) ;
  31:Core/Src/lcd_md21605.c **** 	lcd_set_contrast(0xC) ;
  32:Core/Src/lcd_md21605.c **** 	WAIT(1) ;
  33:Core/Src/lcd_md21605.c **** 	lcd_instruction(POW_ICON_CONTRAST|ION|BON|0b10) ; // contrast MSB do not change
  34:Core/Src/lcd_md21605.c **** 	WAIT(1) ;
  35:Core/Src/lcd_md21605.c **** 	lcd_instruction(FOLLOWER_CTRL|FON|0b011) ;
  36:Core/Src/lcd_md21605.c **** 	WAIT(200) ;
  37:Core/Src/lcd_md21605.c **** 	//lcd_instruction(DISPLAY_ON|D|C|B) ;
  38:Core/Src/lcd_md21605.c **** 	lcd_instruction(DISPLAY_ON|D) ;
  39:Core/Src/lcd_md21605.c **** 	WAIT(1) ;
  40:Core/Src/lcd_md21605.c **** 	lcd_clear() ;
  41:Core/Src/lcd_md21605.c **** 	lcd_instruction(ENTRY_MODE|I_D) ;
  42:Core/Src/lcd_md21605.c **** 	WAIT(1) ;
  43:Core/Src/lcd_md21605.c **** }
  44:Core/Src/lcd_md21605.c **** 
  45:Core/Src/lcd_md21605.c **** void lcd_set_contrast(uint8_t data)
  46:Core/Src/lcd_md21605.c **** {	// LSByte sent first by HAL i2c
  47:Core/Src/lcd_md21605.c **** 	lcd_instruction(CONTRAST|data) ;
  48:Core/Src/lcd_md21605.c **** }
  49:Core/Src/lcd_md21605.c **** void lcd_clear(void)
  50:Core/Src/lcd_md21605.c **** {
  51:Core/Src/lcd_md21605.c **** 	lcd_instruction(CLEAR) ;
  52:Core/Src/lcd_md21605.c **** 	WAIT(2) ;
  53:Core/Src/lcd_md21605.c **** }
  54:Core/Src/lcd_md21605.c **** 
  55:Core/Src/lcd_md21605.c **** void lcd_set_display(bool on_off, bool cursor_on_off, bool cursor_blink_on_off)
  56:Core/Src/lcd_md21605.c **** {	// based on lcd_instruction(DISPLAY_ON|D) ;
  57:Core/Src/lcd_md21605.c **** 	lcd_instruction(DISPLAY_ON| on_off << D_BIT | cursor_on_off << C_BIT | cursor_blink_on_off << B_BI
  58:Core/Src/lcd_md21605.c **** }
  59:Core/Src/lcd_md21605.c **** 
  60:Core/Src/lcd_md21605.c **** 
  61:Core/Src/lcd_md21605.c **** void send_lcd_command(uint16_t data)
  62:Core/Src/lcd_md21605.c **** {
  30              		.loc 1 62 1 view -0
  31              		.cfi_startproc
  32              		@ args = 0, pretend = 0, frame = 8
  33              		@ frame_needed = 0, uses_anonymous_args = 0
  34              		.loc 1 62 1 is_stmt 0 view .LVU1
  35 0000 00B5     		push	{lr}
  36              		.cfi_def_cfa_offset 4
  37              		.cfi_offset 14, -4
  38 0002 85B0     		sub	sp, sp, #20
  39              		.cfi_def_cfa_offset 24
  40 0004 ADF80E00 		strh	r0, [sp, #14]	@ movhi
  63:Core/Src/lcd_md21605.c **** 	HAL_I2C_Master_Transmit(&_I2cHandler, MD21605_I2C_ADDRESS, (uint8_t *)&data, sizeof(data), 1) ; //
  41              		.loc 1 63 2 is_stmt 1 view .LVU2
  42 0008 0123     		movs	r3, #1
  43 000a 0093     		str	r3, [sp]
  44 000c 0223     		movs	r3, #2
  45 000e 0DF10E02 		add	r2, sp, #14
  46 0012 7C21     		movs	r1, #124
  47 0014 0248     		ldr	r0, .L3
  48              	.LVL1:
  49              		.loc 1 63 2 is_stmt 0 view .LVU3
  50 0016 FFF7FEFF 		bl	HAL_I2C_Master_Transmit
  51              	.LVL2:
  64:Core/Src/lcd_md21605.c **** }
ARM GAS  /var/folders/ls/xtnbpyh15yxdpzgvzlqj4t780000gn/T//ccEU8zZ9.s 			page 3


  52              		.loc 1 64 1 view .LVU4
  53 001a 05B0     		add	sp, sp, #20
  54              		.cfi_def_cfa_offset 4
  55              		@ sp needed
  56 001c 5DF804FB 		ldr	pc, [sp], #4
  57              	.L4:
  58              		.align	2
  59              	.L3:
  60 0020 00000000 		.word	_I2cHandler
  61              		.cfi_endproc
  62              	.LFE138:
  64              		.section	.text.lcd_instruction,"ax",%progbits
  65              		.align	1
  66              		.global	lcd_instruction
  67              		.syntax unified
  68              		.thumb
  69              		.thumb_func
  71              	lcd_instruction:
  72              	.LVL3:
  73              	.LFB139:
  65:Core/Src/lcd_md21605.c **** 
  66:Core/Src/lcd_md21605.c **** void lcd_instruction(uint8_t inst)
  67:Core/Src/lcd_md21605.c **** {	// LSByte sent first by HAL i2c
  74              		.loc 1 67 1 is_stmt 1 view -0
  75              		.cfi_startproc
  76              		@ args = 0, pretend = 0, frame = 0
  77              		@ frame_needed = 0, uses_anonymous_args = 0
  78              		.loc 1 67 1 is_stmt 0 view .LVU6
  79 0000 08B5     		push	{r3, lr}
  80              		.cfi_def_cfa_offset 8
  81              		.cfi_offset 3, -8
  82              		.cfi_offset 14, -4
  68:Core/Src/lcd_md21605.c **** 	send_lcd_command(inst<<8|INSTRUCTION) ;
  83              		.loc 1 68 2 is_stmt 1 view .LVU7
  84 0002 0002     		lsls	r0, r0, #8
  85              	.LVL4:
  86              		.loc 1 68 2 is_stmt 0 view .LVU8
  87 0004 FFF7FEFF 		bl	send_lcd_command
  88              	.LVL5:
  69:Core/Src/lcd_md21605.c **** }
  89              		.loc 1 69 1 view .LVU9
  90 0008 08BD     		pop	{r3, pc}
  91              		.cfi_endproc
  92              	.LFE139:
  94              		.section	.text.lcd_set_contrast,"ax",%progbits
  95              		.align	1
  96              		.global	lcd_set_contrast
  97              		.syntax unified
  98              		.thumb
  99              		.thumb_func
 101              	lcd_set_contrast:
 102              	.LVL6:
 103              	.LFB135:
  46:Core/Src/lcd_md21605.c **** 	lcd_instruction(CONTRAST|data) ;
 104              		.loc 1 46 1 is_stmt 1 view -0
 105              		.cfi_startproc
 106              		@ args = 0, pretend = 0, frame = 0
ARM GAS  /var/folders/ls/xtnbpyh15yxdpzgvzlqj4t780000gn/T//ccEU8zZ9.s 			page 4


 107              		@ frame_needed = 0, uses_anonymous_args = 0
  46:Core/Src/lcd_md21605.c **** 	lcd_instruction(CONTRAST|data) ;
 108              		.loc 1 46 1 is_stmt 0 view .LVU11
 109 0000 08B5     		push	{r3, lr}
 110              		.cfi_def_cfa_offset 8
 111              		.cfi_offset 3, -8
 112              		.cfi_offset 14, -4
  47:Core/Src/lcd_md21605.c **** }
 113              		.loc 1 47 2 is_stmt 1 view .LVU12
 114 0002 40F07000 		orr	r0, r0, #112
 115              	.LVL7:
  47:Core/Src/lcd_md21605.c **** }
 116              		.loc 1 47 2 is_stmt 0 view .LVU13
 117 0006 FFF7FEFF 		bl	lcd_instruction
 118              	.LVL8:
  48:Core/Src/lcd_md21605.c **** void lcd_clear(void)
 119              		.loc 1 48 1 view .LVU14
 120 000a 08BD     		pop	{r3, pc}
 121              		.cfi_endproc
 122              	.LFE135:
 124              		.section	.text.lcd_clear,"ax",%progbits
 125              		.align	1
 126              		.global	lcd_clear
 127              		.syntax unified
 128              		.thumb
 129              		.thumb_func
 131              	lcd_clear:
 132              	.LFB136:
  50:Core/Src/lcd_md21605.c **** 	lcd_instruction(CLEAR) ;
 133              		.loc 1 50 1 is_stmt 1 view -0
 134              		.cfi_startproc
 135              		@ args = 0, pretend = 0, frame = 0
 136              		@ frame_needed = 0, uses_anonymous_args = 0
 137 0000 08B5     		push	{r3, lr}
 138              		.cfi_def_cfa_offset 8
 139              		.cfi_offset 3, -8
 140              		.cfi_offset 14, -4
  51:Core/Src/lcd_md21605.c **** 	WAIT(2) ;
 141              		.loc 1 51 2 view .LVU16
 142 0002 0120     		movs	r0, #1
 143 0004 FFF7FEFF 		bl	lcd_instruction
 144              	.LVL9:
  52:Core/Src/lcd_md21605.c **** }
 145              		.loc 1 52 2 view .LVU17
 146 0008 0220     		movs	r0, #2
 147 000a FFF7FEFF 		bl	HAL_Delay
 148              	.LVL10:
  53:Core/Src/lcd_md21605.c **** 
 149              		.loc 1 53 1 is_stmt 0 view .LVU18
 150 000e 08BD     		pop	{r3, pc}
 151              		.cfi_endproc
 152              	.LFE136:
 154              		.section	.text.lcd_init,"ax",%progbits
 155              		.align	1
 156              		.global	lcd_init
 157              		.syntax unified
 158              		.thumb
ARM GAS  /var/folders/ls/xtnbpyh15yxdpzgvzlqj4t780000gn/T//ccEU8zZ9.s 			page 5


 159              		.thumb_func
 161              	lcd_init:
 162              	.LFB134:
  22:Core/Src/lcd_md21605.c **** 	_I2cHandler = i2cHandler ;
 163              		.loc 1 22 1 is_stmt 1 view -0
 164              		.cfi_startproc
 165              		@ args = 84, pretend = 16, frame = 0
 166              		@ frame_needed = 0, uses_anonymous_args = 0
 167 0000 84B0     		sub	sp, sp, #16
 168              		.cfi_def_cfa_offset 16
 169 0002 08B5     		push	{r3, lr}
 170              		.cfi_def_cfa_offset 24
 171              		.cfi_offset 3, -24
 172              		.cfi_offset 14, -20
 173 0004 0DF1080C 		add	ip, sp, #8
 174 0008 8CE80F00 		stm	ip, {r0, r1, r2, r3}
  23:Core/Src/lcd_md21605.c **** 	// Init sequence from manual
 175              		.loc 1 23 2 view .LVU20
  23:Core/Src/lcd_md21605.c **** 	// Init sequence from manual
 176              		.loc 1 23 14 is_stmt 0 view .LVU21
 177 000c 5422     		movs	r2, #84
 178 000e 6146     		mov	r1, ip
 179 0010 1C48     		ldr	r0, .L13
 180 0012 FFF7FEFF 		bl	memcpy
 181              	.LVL11:
  25:Core/Src/lcd_md21605.c **** 	WAIT(1) ;
 182              		.loc 1 25 2 is_stmt 1 view .LVU22
 183 0016 3820     		movs	r0, #56
 184 0018 FFF7FEFF 		bl	lcd_instruction
 185              	.LVL12:
  26:Core/Src/lcd_md21605.c **** 	lcd_instruction(FUNC_SET|DL|N|IS) ;
 186              		.loc 1 26 2 view .LVU23
 187 001c 0120     		movs	r0, #1
 188 001e FFF7FEFF 		bl	HAL_Delay
 189              	.LVL13:
  27:Core/Src/lcd_md21605.c **** 	WAIT(1) ;
 190              		.loc 1 27 2 view .LVU24
 191 0022 3920     		movs	r0, #57
 192 0024 FFF7FEFF 		bl	lcd_instruction
 193              	.LVL14:
  28:Core/Src/lcd_md21605.c **** 	lcd_instruction(SET_FREQ|0b100) ;	// 4 is ~183Hz@3V
 194              		.loc 1 28 2 view .LVU25
 195 0028 0120     		movs	r0, #1
 196 002a FFF7FEFF 		bl	HAL_Delay
 197              	.LVL15:
  29:Core/Src/lcd_md21605.c **** 	WAIT(1) ;
 198              		.loc 1 29 2 view .LVU26
 199 002e 1420     		movs	r0, #20
 200 0030 FFF7FEFF 		bl	lcd_instruction
 201              	.LVL16:
  30:Core/Src/lcd_md21605.c **** 	lcd_set_contrast(0xC) ;
 202              		.loc 1 30 2 view .LVU27
 203 0034 0120     		movs	r0, #1
 204 0036 FFF7FEFF 		bl	HAL_Delay
 205              	.LVL17:
  31:Core/Src/lcd_md21605.c **** 	WAIT(1) ;
 206              		.loc 1 31 2 view .LVU28
ARM GAS  /var/folders/ls/xtnbpyh15yxdpzgvzlqj4t780000gn/T//ccEU8zZ9.s 			page 6


 207 003a 0C20     		movs	r0, #12
 208 003c FFF7FEFF 		bl	lcd_set_contrast
 209              	.LVL18:
  32:Core/Src/lcd_md21605.c **** 	lcd_instruction(POW_ICON_CONTRAST|ION|BON|0b10) ; // contrast MSB do not change
 210              		.loc 1 32 2 view .LVU29
 211 0040 0120     		movs	r0, #1
 212 0042 FFF7FEFF 		bl	HAL_Delay
 213              	.LVL19:
  33:Core/Src/lcd_md21605.c **** 	WAIT(1) ;
 214              		.loc 1 33 2 view .LVU30
 215 0046 5E20     		movs	r0, #94
 216 0048 FFF7FEFF 		bl	lcd_instruction
 217              	.LVL20:
  34:Core/Src/lcd_md21605.c **** 	lcd_instruction(FOLLOWER_CTRL|FON|0b011) ;
 218              		.loc 1 34 2 view .LVU31
 219 004c 0120     		movs	r0, #1
 220 004e FFF7FEFF 		bl	HAL_Delay
 221              	.LVL21:
  35:Core/Src/lcd_md21605.c **** 	WAIT(200) ;
 222              		.loc 1 35 2 view .LVU32
 223 0052 6B20     		movs	r0, #107
 224 0054 FFF7FEFF 		bl	lcd_instruction
 225              	.LVL22:
  36:Core/Src/lcd_md21605.c **** 	//lcd_instruction(DISPLAY_ON|D|C|B) ;
 226              		.loc 1 36 2 view .LVU33
 227 0058 C820     		movs	r0, #200
 228 005a FFF7FEFF 		bl	HAL_Delay
 229              	.LVL23:
  38:Core/Src/lcd_md21605.c **** 	WAIT(1) ;
 230              		.loc 1 38 2 view .LVU34
 231 005e 0C20     		movs	r0, #12
 232 0060 FFF7FEFF 		bl	lcd_instruction
 233              	.LVL24:
  39:Core/Src/lcd_md21605.c **** 	lcd_clear() ;
 234              		.loc 1 39 2 view .LVU35
 235 0064 0120     		movs	r0, #1
 236 0066 FFF7FEFF 		bl	HAL_Delay
 237              	.LVL25:
  40:Core/Src/lcd_md21605.c **** 	lcd_instruction(ENTRY_MODE|I_D) ;
 238              		.loc 1 40 2 view .LVU36
 239 006a FFF7FEFF 		bl	lcd_clear
 240              	.LVL26:
  41:Core/Src/lcd_md21605.c **** 	WAIT(1) ;
 241              		.loc 1 41 2 view .LVU37
 242 006e 0620     		movs	r0, #6
 243 0070 FFF7FEFF 		bl	lcd_instruction
 244              	.LVL27:
  42:Core/Src/lcd_md21605.c **** }
 245              		.loc 1 42 2 view .LVU38
 246 0074 0120     		movs	r0, #1
 247 0076 FFF7FEFF 		bl	HAL_Delay
 248              	.LVL28:
  43:Core/Src/lcd_md21605.c **** 
 249              		.loc 1 43 1 is_stmt 0 view .LVU39
 250 007a BDE80840 		pop	{r3, lr}
 251              		.cfi_restore 14
 252              		.cfi_restore 3
ARM GAS  /var/folders/ls/xtnbpyh15yxdpzgvzlqj4t780000gn/T//ccEU8zZ9.s 			page 7


 253              		.cfi_def_cfa_offset 16
 254 007e 04B0     		add	sp, sp, #16
 255              		.cfi_def_cfa_offset 0
 256 0080 7047     		bx	lr
 257              	.L14:
 258 0082 00BF     		.align	2
 259              	.L13:
 260 0084 00000000 		.word	_I2cHandler
 261              		.cfi_endproc
 262              	.LFE134:
 264              		.section	.text.lcd_set_display,"ax",%progbits
 265              		.align	1
 266              		.global	lcd_set_display
 267              		.syntax unified
 268              		.thumb
 269              		.thumb_func
 271              	lcd_set_display:
 272              	.LVL29:
 273              	.LFB137:
  56:Core/Src/lcd_md21605.c **** 	lcd_instruction(DISPLAY_ON| on_off << D_BIT | cursor_on_off << C_BIT | cursor_blink_on_off << B_BI
 274              		.loc 1 56 1 is_stmt 1 view -0
 275              		.cfi_startproc
 276              		@ args = 0, pretend = 0, frame = 0
 277              		@ frame_needed = 0, uses_anonymous_args = 0
  56:Core/Src/lcd_md21605.c **** 	lcd_instruction(DISPLAY_ON| on_off << D_BIT | cursor_on_off << C_BIT | cursor_blink_on_off << B_BI
 278              		.loc 1 56 1 is_stmt 0 view .LVU41
 279 0000 08B5     		push	{r3, lr}
 280              		.cfi_def_cfa_offset 8
 281              		.cfi_offset 3, -8
 282              		.cfi_offset 14, -4
  57:Core/Src/lcd_md21605.c **** }
 283              		.loc 1 57 2 is_stmt 1 view .LVU42
  57:Core/Src/lcd_md21605.c **** }
 284              		.loc 1 57 28 is_stmt 0 view .LVU43
 285 0002 8000     		lsls	r0, r0, #2
 286              	.LVL30:
  57:Core/Src/lcd_md21605.c **** }
 287              		.loc 1 57 28 view .LVU44
 288 0004 40F00800 		orr	r0, r0, #8
 289 0008 40B2     		sxtb	r0, r0
  57:Core/Src/lcd_md21605.c **** }
 290              		.loc 1 57 46 view .LVU45
 291 000a 40EA4100 		orr	r0, r0, r1, lsl #1
 292 000e 40B2     		sxtb	r0, r0
  57:Core/Src/lcd_md21605.c **** }
 293              		.loc 1 57 71 view .LVU46
 294 0010 1043     		orrs	r0, r0, r2
  57:Core/Src/lcd_md21605.c **** }
 295              		.loc 1 57 2 view .LVU47
 296 0012 C0B2     		uxtb	r0, r0
 297 0014 FFF7FEFF 		bl	lcd_instruction
 298              	.LVL31:
  58:Core/Src/lcd_md21605.c **** 
 299              		.loc 1 58 1 view .LVU48
 300 0018 08BD     		pop	{r3, pc}
 301              		.cfi_endproc
 302              	.LFE137:
ARM GAS  /var/folders/ls/xtnbpyh15yxdpzgvzlqj4t780000gn/T//ccEU8zZ9.s 			page 8


 304              		.section	.text.lcd_data,"ax",%progbits
 305              		.align	1
 306              		.global	lcd_data
 307              		.syntax unified
 308              		.thumb
 309              		.thumb_func
 311              	lcd_data:
 312              	.LVL32:
 313              	.LFB140:
  70:Core/Src/lcd_md21605.c **** void lcd_data(uint8_t data)
  71:Core/Src/lcd_md21605.c **** {	// LSByte sent first by HAL i2c
 314              		.loc 1 71 1 is_stmt 1 view -0
 315              		.cfi_startproc
 316              		@ args = 0, pretend = 0, frame = 0
 317              		@ frame_needed = 0, uses_anonymous_args = 0
 318              		.loc 1 71 1 is_stmt 0 view .LVU50
 319 0000 08B5     		push	{r3, lr}
 320              		.cfi_def_cfa_offset 8
 321              		.cfi_offset 3, -8
 322              		.cfi_offset 14, -4
  72:Core/Src/lcd_md21605.c **** 	send_lcd_command(data << 8 | DATA_TO_RAM) ;
 323              		.loc 1 72 2 is_stmt 1 view .LVU51
 324              		.loc 1 72 29 is_stmt 0 view .LVU52
 325 0002 0002     		lsls	r0, r0, #8
 326              	.LVL33:
 327              		.loc 1 72 2 view .LVU53
 328 0004 40F04000 		orr	r0, r0, #64
 329 0008 FFF7FEFF 		bl	send_lcd_command
 330              	.LVL34:
  73:Core/Src/lcd_md21605.c **** }
 331              		.loc 1 73 1 view .LVU54
 332 000c 08BD     		pop	{r3, pc}
 333              		.cfi_endproc
 334              	.LFE140:
 336              		.section	.text.lcd_reset,"ax",%progbits
 337              		.align	1
 338              		.global	lcd_reset
 339              		.syntax unified
 340              		.thumb
 341              		.thumb_func
 343              	lcd_reset:
 344              	.LFB141:
  74:Core/Src/lcd_md21605.c **** 
  75:Core/Src/lcd_md21605.c **** 
  76:Core/Src/lcd_md21605.c **** void lcd_reset(void)
  77:Core/Src/lcd_md21605.c **** {}
 345              		.loc 1 77 1 is_stmt 1 view -0
 346              		.cfi_startproc
 347              		@ args = 0, pretend = 0, frame = 0
 348              		@ frame_needed = 0, uses_anonymous_args = 0
 349              		@ link register save eliminated.
 350              		.loc 1 77 2 view .LVU56
 351 0000 7047     		bx	lr
 352              		.cfi_endproc
 353              	.LFE141:
 355              		.section	.text.lcd_put_cursor,"ax",%progbits
 356              		.align	1
ARM GAS  /var/folders/ls/xtnbpyh15yxdpzgvzlqj4t780000gn/T//ccEU8zZ9.s 			page 9


 357              		.global	lcd_put_cursor
 358              		.syntax unified
 359              		.thumb
 360              		.thumb_func
 362              	lcd_put_cursor:
 363              	.LVL35:
 364              	.LFB142:
  78:Core/Src/lcd_md21605.c **** 
  79:Core/Src/lcd_md21605.c **** void lcd_put_cursor(uint8_t line, uint8_t col)	// BACKLIGHT 1
  80:Core/Src/lcd_md21605.c **** {	/*
 365              		.loc 1 80 1 view -0
 366              		.cfi_startproc
 367              		@ args = 0, pretend = 0, frame = 0
 368              		@ frame_needed = 0, uses_anonymous_args = 0
 369              		.loc 1 80 1 is_stmt 0 view .LVU58
 370 0000 08B5     		push	{r3, lr}
 371              		.cfi_def_cfa_offset 8
 372              		.cfi_offset 3, -8
 373              		.cfi_offset 14, -4
  81:Core/Src/lcd_md21605.c **** 	pos	  1  2  3  4  5 ... 39 40
  82:Core/Src/lcd_md21605.c **** 	l1@	 00 01 02 03 04 ... 26 27 (hex)
  83:Core/Src/lcd_md21605.c **** 	l2@  40 41 42 43 44 ... 66 67
  84:Core/Src/lcd_md21605.c **** 	 */
  85:Core/Src/lcd_md21605.c **** 	uint8_t data = line * 0x40 + col ;
 374              		.loc 1 85 2 is_stmt 1 view .LVU59
 375              		.loc 1 85 29 is_stmt 0 view .LVU60
 376 0002 8001     		lsls	r0, r0, #6
 377              	.LVL36:
 378              		.loc 1 85 29 view .LVU61
 379 0004 C0B2     		uxtb	r0, r0
 380              		.loc 1 85 10 view .LVU62
 381 0006 0844     		add	r0, r0, r1
 382              	.LVL37:
  86:Core/Src/lcd_md21605.c **** 	lcd_instruction(SET_DRAM_ADDR | data) ;
 383              		.loc 1 86 2 is_stmt 1 view .LVU63
 384 0008 60F07F00 		orn	r0, r0, #127
 385              	.LVL38:
 386              		.loc 1 86 2 is_stmt 0 view .LVU64
 387 000c C0B2     		uxtb	r0, r0
 388 000e FFF7FEFF 		bl	lcd_instruction
 389              	.LVL39:
  87:Core/Src/lcd_md21605.c **** }
 390              		.loc 1 87 1 view .LVU65
 391 0012 08BD     		pop	{r3, pc}
 392              		.cfi_endproc
 393              	.LFE142:
 395              		.section	.text.lcd_write,"ax",%progbits
 396              		.align	1
 397              		.global	lcd_write
 398              		.syntax unified
 399              		.thumb
 400              		.thumb_func
 402              	lcd_write:
 403              	.LVL40:
 404              	.LFB143:
  88:Core/Src/lcd_md21605.c **** 
  89:Core/Src/lcd_md21605.c **** 
ARM GAS  /var/folders/ls/xtnbpyh15yxdpzgvzlqj4t780000gn/T//ccEU8zZ9.s 			page 10


  90:Core/Src/lcd_md21605.c **** void lcd_write(char *str)
  91:Core/Src/lcd_md21605.c **** {	uint8_t i=0 ;
 405              		.loc 1 91 1 is_stmt 1 view -0
 406              		.cfi_startproc
 407              		@ args = 0, pretend = 0, frame = 0
 408              		@ frame_needed = 0, uses_anonymous_args = 0
 409              		.loc 1 91 1 is_stmt 0 view .LVU67
 410 0000 38B5     		push	{r3, r4, r5, lr}
 411              		.cfi_def_cfa_offset 16
 412              		.cfi_offset 3, -16
 413              		.cfi_offset 4, -12
 414              		.cfi_offset 5, -8
 415              		.cfi_offset 14, -4
 416 0002 0546     		mov	r5, r0
 417              		.loc 1 91 3 is_stmt 1 view .LVU68
 418              	.LVL41:
  92:Core/Src/lcd_md21605.c **** 	while(str[i]!='\0')
 419              		.loc 1 92 2 view .LVU69
  91:Core/Src/lcd_md21605.c **** 	while(str[i]!='\0')
 420              		.loc 1 91 11 is_stmt 0 view .LVU70
 421 0004 0024     		movs	r4, #0
 422              		.loc 1 92 7 view .LVU71
 423 0006 06E0     		b	.L23
 424              	.LVL42:
 425              	.L24:
  93:Core/Src/lcd_md21605.c **** 	{
  94:Core/Src/lcd_md21605.c **** 		lcd_data(str[i]) ; // not optimized : i2c stop after each char
 426              		.loc 1 94 3 is_stmt 1 view .LVU72
 427 0008 FFF7FEFF 		bl	lcd_data
 428              	.LVL43:
  95:Core/Src/lcd_md21605.c **** 		WAIT(1) ;
 429              		.loc 1 95 3 view .LVU73
 430 000c 0120     		movs	r0, #1
 431 000e FFF7FEFF 		bl	HAL_Delay
 432              	.LVL44:
  96:Core/Src/lcd_md21605.c **** 		i++;
 433              		.loc 1 96 3 view .LVU74
 434              		.loc 1 96 4 is_stmt 0 view .LVU75
 435 0012 0134     		adds	r4, r4, #1
 436              	.LVL45:
 437              		.loc 1 96 4 view .LVU76
 438 0014 E4B2     		uxtb	r4, r4
 439              	.LVL46:
 440              	.L23:
  92:Core/Src/lcd_md21605.c **** 	{
 441              		.loc 1 92 14 is_stmt 1 view .LVU77
  92:Core/Src/lcd_md21605.c **** 	{
 442              		.loc 1 92 11 is_stmt 0 view .LVU78
 443 0016 285D     		ldrb	r0, [r5, r4]	@ zero_extendqisi2
  92:Core/Src/lcd_md21605.c **** 	{
 444              		.loc 1 92 14 view .LVU79
 445 0018 0028     		cmp	r0, #0
 446 001a F5D1     		bne	.L24
  97:Core/Src/lcd_md21605.c **** 	}
  98:Core/Src/lcd_md21605.c **** }
 447              		.loc 1 98 1 view .LVU80
 448 001c 38BD     		pop	{r3, r4, r5, pc}
ARM GAS  /var/folders/ls/xtnbpyh15yxdpzgvzlqj4t780000gn/T//ccEU8zZ9.s 			page 11


 449              		.loc 1 98 1 view .LVU81
 450              		.cfi_endproc
 451              	.LFE143:
 453              		.global	_I2cHandler
 454              		.section	.bss._I2cHandler,"aw",%nobits
 455              		.align	2
 458              	_I2cHandler:
 459 0000 00000000 		.space	84
 459      00000000 
 459      00000000 
 459      00000000 
 459      00000000 
 460              		.text
 461              	.Letext0:
 462              		.file 2 "/Users/antoinemg/Library/Application Support/Code/User/globalStorage/bmd.stm32-for-vscode
 463              		.file 3 "/Users/antoinemg/Library/Application Support/Code/User/globalStorage/bmd.stm32-for-vscode
 464              		.file 4 "Drivers/CMSIS/Device/ST/STM32F4xx/Include/stm32f446xx.h"
 465              		.file 5 "Drivers/STM32F4xx_HAL_Driver/Inc/stm32f4xx_hal_def.h"
 466              		.file 6 "Drivers/STM32F4xx_HAL_Driver/Inc/stm32f4xx_hal_dma.h"
 467              		.file 7 "Drivers/STM32F4xx_HAL_Driver/Inc/stm32f4xx_hal_i2c.h"
 468              		.file 8 "Drivers/STM32F4xx_HAL_Driver/Inc/stm32f4xx_hal.h"
 469              		.file 9 "<built-in>"
ARM GAS  /var/folders/ls/xtnbpyh15yxdpzgvzlqj4t780000gn/T//ccEU8zZ9.s 			page 12

